target datalayout = "e-m:e-p270:32:32-p271:32:32-p272:64:64-i64:64-i128:128-f80:128-n8:16:32:64-S128"
target triple = "x86_64-pc-linux-gnu"

%struct.evp_cipher_info_st = type { ptr, [16 x i8] }
%struct.evp_cipher_ctx_st = type { ptr, ptr, ptr, i32, i32, i32, [16 x i8], [16 x i8], [32 x i8], i32, i32, i32, i32, [32 x i8] }

@.str.8 = private unnamed_addr constant [124 x i8] c"generated/home/dtcxzyw/WorkSpace/Projects/compilers/llvm-opt-benchmark/bench/libquic/libquic/boringssl/crypto/pem/pem_lib.c\00", align 1

; Function Attrs: nounwind uwtable
define hidden i32 @PEM_do_header(ptr noundef %0, ptr noundef %1, ptr noundef %2, ptr noundef %3, ptr noundef %4) #0 {
  %6 = alloca i32, align 4
  %7 = alloca ptr, align 8
  %8 = alloca ptr, align 8
  %9 = alloca ptr, align 8
  %10 = alloca ptr, align 8
  %11 = alloca ptr, align 8
  %12 = alloca i32, align 4
  %13 = alloca i32, align 4
  %14 = alloca i32, align 4
  %15 = alloca i32, align 4
  %16 = alloca i64, align 8
  %17 = alloca %struct.evp_cipher_ctx_st, align 8
  %18 = alloca [64 x i8], align 16
  %19 = alloca [1024 x i8], align 16
  %20 = alloca i32, align 4
  store ptr %0, ptr %7, align 8, !tbaa !35
  store ptr %1, ptr %8, align 8, !tbaa !6
  store ptr %2, ptr %9, align 8, !tbaa !25
  store ptr %3, ptr %10, align 8, !tbaa !18
  store ptr %4, ptr %11, align 8, !tbaa !18
  call void @llvm.lifetime.start.p0(i64 4, ptr %12) #7
  store i32 0, ptr %12, align 4, !tbaa !11
  call void @llvm.lifetime.start.p0(i64 4, ptr %13) #7
  call void @llvm.lifetime.start.p0(i64 4, ptr %14) #7
  call void @llvm.lifetime.start.p0(i64 4, ptr %15) #7
  call void @llvm.lifetime.start.p0(i64 8, ptr %16) #7
  call void @llvm.lifetime.start.p0(i64 152, ptr %17) #7
  call void @llvm.lifetime.start.p0(i64 64, ptr %18) #7
  call void @llvm.lifetime.start.p0(i64 1024, ptr %19) #7
  %21 = load ptr, ptr %9, align 8, !tbaa !25
  %22 = load i64, ptr %21, align 8, !tbaa !13
  store i64 %22, ptr %16, align 8, !tbaa !13
  %23 = load ptr, ptr %7, align 8, !tbaa !35
  %24 = getelementptr inbounds nuw %struct.evp_cipher_info_st, ptr %23, i32 0, i32 0
  %25 = load ptr, ptr %24, align 8, !tbaa !39
  %26 = icmp eq ptr %25, null
  br i1 %26, label %27, label %28

27:                                               ; preds = %5
  store i32 1, ptr %6, align 4
  store i32 1, ptr %20, align 4
  br label %96

28:                                               ; preds = %5
  store i32 0, ptr %15, align 4, !tbaa !11
  %29 = load ptr, ptr %10, align 8, !tbaa !18
  %30 = icmp ne ptr %29, null
  br i1 %30, label %32, label %31

31:                                               ; preds = %28
  store ptr @PEM_def_callback, ptr %10, align 8, !tbaa !18
  br label %32

32:                                               ; preds = %31, %28
  %33 = load ptr, ptr %10, align 8, !tbaa !18
  %34 = getelementptr inbounds [1024 x i8], ptr %19, i64 0, i64 0
  %35 = load ptr, ptr %11, align 8, !tbaa !18
  %36 = call i32 %33(ptr noundef %34, i32 noundef 1024, i32 noundef 0, ptr noundef %35)
  store i32 %36, ptr %15, align 4, !tbaa !11
  %37 = load i32, ptr %15, align 4, !tbaa !11
  %38 = icmp sle i32 %37, 0
  br i1 %38, label %39, label %40

39:                                               ; preds = %32
  call void @ERR_put_error(i32 noundef 9, i32 noundef 0, i32 noundef 104, ptr noundef @.str.8, i32 noundef 369)
  store i32 0, ptr %6, align 4
  store i32 1, ptr %20, align 4
  br label %96

40:                                               ; preds = %32
  %41 = load ptr, ptr %7, align 8, !tbaa !35
  %42 = getelementptr inbounds nuw %struct.evp_cipher_info_st, ptr %41, i32 0, i32 0
  %43 = load ptr, ptr %42, align 8, !tbaa !39
  %44 = call ptr @EVP_md5()
  %45 = load ptr, ptr %7, align 8, !tbaa !35
  %46 = getelementptr inbounds nuw %struct.evp_cipher_info_st, ptr %45, i32 0, i32 1
  %47 = getelementptr inbounds [16 x i8], ptr %46, i64 0, i64 0
  %48 = getelementptr inbounds [1024 x i8], ptr %19, i64 0, i64 0
  %49 = load i32, ptr %15, align 4, !tbaa !11
  %50 = sext i32 %49 to i64
  %51 = getelementptr inbounds [64 x i8], ptr %18, i64 0, i64 0
  %52 = call i32 @EVP_BytesToKey(ptr noundef %43, ptr noundef %44, ptr noundef %47, ptr noundef %48, i64 noundef %50, i32 noundef 1, ptr noundef %51, ptr noundef null)
  %53 = icmp ne i32 %52, 0
  br i1 %53, label %55, label %54

54:                                               ; preds = %40
  store i32 0, ptr %6, align 4
  store i32 1, ptr %20, align 4
  br label %96

55:                                               ; preds = %40
  %56 = load i64, ptr %16, align 8, !tbaa !13
  %57 = trunc i64 %56 to i32
  store i32 %57, ptr %13, align 4, !tbaa !11
  call void @EVP_CIPHER_CTX_init(ptr noundef %17)
  %58 = load ptr, ptr %7, align 8, !tbaa !35
  %59 = getelementptr inbounds nuw %struct.evp_cipher_info_st, ptr %58, i32 0, i32 0
  %60 = load ptr, ptr %59, align 8, !tbaa !39
  %61 = getelementptr inbounds [64 x i8], ptr %18, i64 0, i64 0
  %62 = load ptr, ptr %7, align 8, !tbaa !35
  %63 = getelementptr inbounds nuw %struct.evp_cipher_info_st, ptr %62, i32 0, i32 1
  %64 = getelementptr inbounds [16 x i8], ptr %63, i64 0, i64 0
  %65 = call i32 @EVP_DecryptInit_ex(ptr noundef %17, ptr noundef %60, ptr noundef null, ptr noundef %61, ptr noundef %64)
  store i32 %65, ptr %14, align 4, !tbaa !11
  %66 = load i32, ptr %14, align 4, !tbaa !11
  %67 = icmp ne i32 %66, 0
  br i1 %67, label %68, label %73

68:                                               ; preds = %55
  %69 = load ptr, ptr %8, align 8, !tbaa !6
  %70 = load ptr, ptr %8, align 8, !tbaa !6
  %71 = load i32, ptr %13, align 4, !tbaa !11
  %72 = call i32 @EVP_DecryptUpdate(ptr noundef %17, ptr noundef %69, ptr noundef %12, ptr noundef %70, i32 noundef %71)
  store i32 %72, ptr %14, align 4, !tbaa !11
  br label %73

73:                                               ; preds = %68, %55
  %74 = load i32, ptr %14, align 4, !tbaa !11
  %75 = icmp ne i32 %74, 0
  br i1 %75, label %76, label %82

76:                                               ; preds = %73
  %77 = load ptr, ptr %8, align 8, !tbaa !6
  %78 = load i32, ptr %12, align 4, !tbaa !11
  %79 = sext i32 %78 to i64
  %80 = getelementptr inbounds i8, ptr %77, i64 %79
  %81 = call i32 @EVP_DecryptFinal_ex(ptr noundef %17, ptr noundef %80, ptr noundef %13)
  store i32 %81, ptr %14, align 4, !tbaa !11
  br label %82

82:                                               ; preds = %76, %73
  %83 = call i32 @EVP_CIPHER_CTX_cleanup(ptr noundef %17)
  %84 = getelementptr inbounds [1024 x i8], ptr %19, i64 0, i64 0
  call void @OPENSSL_cleanse(ptr noundef %84, i64 noundef 1024)
  %85 = getelementptr inbounds [64 x i8], ptr %18, i64 0, i64 0
  call void @OPENSSL_cleanse(ptr noundef %85, i64 noundef 64)
  %86 = load i32, ptr %14, align 4, !tbaa !11
  %87 = icmp ne i32 %86, 0
  br i1 %87, label %89, label %88

88:                                               ; preds = %82
  call void @ERR_put_error(i32 noundef 9, i32 noundef 0, i32 noundef 101, ptr noundef @.str.8, i32 noundef 388)
  store i32 0, ptr %6, align 4
  store i32 1, ptr %20, align 4
  br label %96

89:                                               ; preds = %82
  %90 = load i32, ptr %12, align 4, !tbaa !11
  %91 = load i32, ptr %13, align 4, !tbaa !11
  %92 = add nsw i32 %91, %90
  store i32 %92, ptr %13, align 4, !tbaa !11
  %93 = load i32, ptr %13, align 4, !tbaa !11
  %94 = sext i32 %93 to i64
  %95 = load ptr, ptr %9, align 8, !tbaa !25
  store i64 %94, ptr %95, align 8, !tbaa !13
  store i32 1, ptr %6, align 4
  store i32 1, ptr %20, align 4
  br label %96

96:                                               ; preds = %89, %88, %54, %39, %27
  call void @llvm.lifetime.end.p0(i64 1024, ptr %19) #7
  call void @llvm.lifetime.end.p0(i64 64, ptr %18) #7
  call void @llvm.lifetime.end.p0(i64 152, ptr %17) #7
  call void @llvm.lifetime.end.p0(i64 8, ptr %16) #7
  call void @llvm.lifetime.end.p0(i64 4, ptr %15) #7
  call void @llvm.lifetime.end.p0(i64 4, ptr %14) #7
  call void @llvm.lifetime.end.p0(i64 4, ptr %13) #7
  call void @llvm.lifetime.end.p0(i64 4, ptr %12) #7
  %97 = load i32, ptr %6, align 4
  ret i32 %97
}