; Function Attrs: nounwind uwtable
define hidden range(i32 0, 2) i32 @PEM_do_header(ptr noundef %0, ptr noundef %1, ptr noundef captures(none) %2, ptr noundef readonly captures(address_is_null) %3, ptr noundef %4) local_unnamed_addr #0 {
  %6 = alloca i32, align 4
  %7 = alloca i32, align 4
  %8 = alloca %struct.evp_cipher_ctx_st, align 8
  %9 = alloca [64 x i8], align 16
  %10 = alloca [1024 x i8], align 16
  call void @llvm.lifetime.start.p0(i64 4, ptr nonnull %6) #12
  store i32 0, ptr %6, align 4, !tbaa !16
  call void @llvm.lifetime.start.p0(i64 4, ptr nonnull %7) #12
  call void @llvm.lifetime.start.p0(i64 152, ptr nonnull %8) #12
  call void @llvm.lifetime.start.p0(i64 64, ptr nonnull %9) #12
  call void @llvm.lifetime.start.p0(i64 1024, ptr nonnull %10) #12
  %11 = load i64, ptr %2, align 8, !tbaa !14
  %12 = load ptr, ptr %0, align 8, !tbaa !24
  %13 = icmp eq ptr %12, null
  br i1 %13, label %44, label %14

14:                                               ; preds = %5
  %.not = icmp eq ptr %3, null
  %spec.store.select = select i1 %.not, ptr @PEM_def_callback, ptr %3
  %15 = call i32 %spec.store.select(ptr noundef nonnull %10, i32 noundef 1024, i32 noundef 0, ptr noundef %4) #12
  %16 = icmp slt i32 %15, 1
  br i1 %16, label %17, label %18

17:                                               ; preds = %14
  call void @ERR_put_error(i32 noundef 9, i32 noundef 0, i32 noundef 104, ptr noundef nonnull @.str.8, i32 noundef 369) #12
  br label %44

18:                                               ; preds = %14
  %19 = load ptr, ptr %0, align 8, !tbaa !24
  %20 = call ptr @EVP_md5() #12
  %21 = getelementptr inbounds nuw i8, ptr %0, i64 8
  %22 = zext nneg i32 %15 to i64
  %23 = call i32 @EVP_BytesToKey(ptr noundef %19, ptr noundef %20, ptr noundef nonnull %21, ptr noundef nonnull %10, i64 noundef %22, i32 noundef 1, ptr noundef nonnull %9, ptr noundef null) #12
  %.not22 = icmp eq i32 %23, 0
  br i1 %.not22, label %44, label %24

24:                                               ; preds = %18
  %25 = trunc i64 %11 to i32
  store i32 %25, ptr %7, align 4, !tbaa !16
  call void @EVP_CIPHER_CTX_init(ptr noundef nonnull %8) #12
  %26 = load ptr, ptr %0, align 8, !tbaa !24
  %27 = call i32 @EVP_DecryptInit_ex(ptr noundef nonnull %8, ptr noundef %26, ptr noundef null, ptr noundef nonnull %9, ptr noundef nonnull %21) #12
  %.not23 = icmp eq i32 %27, 0
  br i1 %.not23, label %.critedge26, label %28

28:                                               ; preds = %24
  %29 = call i32 @EVP_DecryptUpdate(ptr noundef nonnull %8, ptr noundef %1, ptr noundef nonnull %6, ptr noundef %1, i32 noundef %25) #12
  %30 = icmp eq i32 %29, 0
  br i1 %30, label %.critedge26, label %.critedge

.critedge:                                        ; preds = %28
  %31 = load i32, ptr %6, align 4, !tbaa !16
  %32 = sext i32 %31 to i64
  %33 = getelementptr inbounds i8, ptr %1, i64 %32
  %34 = call i32 @EVP_DecryptFinal_ex(ptr noundef nonnull %8, ptr noundef %33, ptr noundef nonnull %7) #12
  %35 = icmp eq i32 %34, 0
  %36 = call i32 @EVP_CIPHER_CTX_cleanup(ptr noundef nonnull %8) #12
  call void @OPENSSL_cleanse(ptr noundef nonnull %10, i64 noundef 1024) #12
  call void @OPENSSL_cleanse(ptr noundef nonnull %9, i64 noundef 64) #12
  br i1 %35, label %38, label %39

.critedge26:                                      ; preds = %24, %28
  %37 = call i32 @EVP_CIPHER_CTX_cleanup(ptr noundef nonnull %8) #12
  call void @OPENSSL_cleanse(ptr noundef nonnull %10, i64 noundef 1024) #12
  call void @OPENSSL_cleanse(ptr noundef nonnull %9, i64 noundef 64) #12
  br label %38

38:                                               ; preds = %.critedge26, %.critedge
  call void @ERR_put_error(i32 noundef 9, i32 noundef 0, i32 noundef 101, ptr noundef nonnull @.str.8, i32 noundef 388) #12
  br label %44

39:                                               ; preds = %.critedge
  %40 = load i32, ptr %6, align 4, !tbaa !16
  %41 = load i32, ptr %7, align 4, !tbaa !16
  %42 = add nsw i32 %41, %40
  %43 = sext i32 %42 to i64
  store i64 %43, ptr %2, align 8, !tbaa !14
  br label %44

44:                                               ; preds = %18, %5, %39, %38, %17
  %.0 = phi i32 [ 0, %17 ], [ 1, %39 ], [ 0, %38 ], [ 1, %5 ], [ 0, %18 ]
  call void @llvm.lifetime.end.p0(i64 1024, ptr nonnull %10) #12
  call void @llvm.lifetime.end.p0(i64 64, ptr nonnull %9) #12
  call void @llvm.lifetime.end.p0(i64 152, ptr nonnull %8) #12
  call void @llvm.lifetime.end.p0(i64 4, ptr nonnull %7) #12
  call void @llvm.lifetime.end.p0(i64 4, ptr nonnull %6) #12
  ret i32 %.0
}